Certificate:
    Data:
        Version: 3 (0x2)
        Serial Number:
            27:77:02:f1:14:fd:ea:9d:dd:8c:a7:21:2d:a1:e6:d2
        Signature Algorithm: ecdsa-with-SHA512
        Issuer: CN=Dmitrii Fediuk
        Validity
            Not Before: Jul 17 12:01:02 2024 GMT
            Not After : Oct 20 12:01:02 2026 GMT
        Subject: CN=server
        Subject Public Key Info:
            Public Key Algorithm: id-ecPublicKey
                Public-Key: (384 bit)
                pub:
                    04:01:22:e8:dc:b1:d0:d3:c9:e8:45:8e:fe:93:ad:
                    3b:80:cb:b1:1f:01:b6:55:7a:1c:f7:8d:d7:80:b7:
                    46:42:52:dd:74:ad:79:1f:53:e9:47:b7:28:ad:fb:
                    c5:2f:42:a1:c3:88:08:39:43:d8:ce:c9:95:c0:ab:
                    13:97:ad:4f:7d:d1:eb:8d:d9:ed:b1:66:c6:19:ff:
                    85:cb:42:80:9c:7b:ca:f9:79:66:e7:fe:48:de:0f:
                    f6:77:40:31:5e:a7:44
                ASN1 OID: secp384r1
                NIST CURVE: P-384
        X509v3 extensions:
            X509v3 Basic Constraints: 
                CA:FALSE
            X509v3 Subject Key Identifier: 
                5B:72:8B:A5:81:B4:E8:FC:20:EF:DC:15:A1:AF:8B:94:90:2B:32:FD
            X509v3 Authority Key Identifier: 
                keyid:E2:6A:75:A1:2D:1E:96:A8:74:67:E5:A0:E6:75:69:93:17:96:72:F5
                DirName:/CN=Dmitrii Fediuk
                serial:2D:AE:8C:31:29:26:29:33:00:C3:F7:91:55:DD:52:B9:33:17:A6:EB
            X509v3 Extended Key Usage: 
                TLS Web Server Authentication
            X509v3 Key Usage: 
                Digital Signature, Key Encipherment
            X509v3 Subject Alternative Name: 
                DNS:server
    Signature Algorithm: ecdsa-with-SHA512
    Signature Value:
        30:65:02:30:17:7f:f0:ed:8f:d5:eb:fe:31:42:da:2f:b4:f3:
        bc:a8:53:fa:d0:d9:08:bd:fa:56:5a:06:24:12:d1:13:0d:eb:
        4e:63:c9:89:16:58:1a:b0:ef:fa:02:4a:2a:55:b4:00:02:31:
        00:89:06:ef:16:d0:ce:4e:da:b4:15:6a:db:3d:0c:53:f4:39:
        94:87:c5:fc:f8:39:63:d4:6e:87:cb:70:b2:f8:16:27:fd:b5:
        64:6d:ef:d2:0d:97:c5:e7:37:27:3b:c4:bc
-----BEGIN CERTIFICATE-----
MIICHjCCAaSgAwIBAgIQJ3cC8RT96p3djKchLaHm0jAKBggqhkjOPQQDBDAZMRcw
FQYDVQQDDA5EbWl0cmlpIEZlZGl1azAeFw0yNDA3MTcxMjAxMDJaFw0yNjEwMjAx
MjAxMDJaMBExDzANBgNVBAMMBnNlcnZlcjB2MBAGByqGSM49AgEGBSuBBAAiA2IA
BAEi6Nyx0NPJ6EWO/pOtO4DLsR8BtlV6HPeN14C3RkJS3XSteR9T6Ue3KK37xS9C
ocOICDlD2M7JlcCrE5etT33R643Z7bFmxhn/hctCgJx7yvl5Zuf+SN4P9ndAMV6n
RKOBuDCBtTAJBgNVHRMEAjAAMB0GA1UdDgQWBBRbcoulgbTo/CDv3BWhr4uUkCsy
/TBUBgNVHSMETTBLgBTianWhLR6WqHRn5aDmdWmTF5Zy9aEdpBswGTEXMBUGA1UE
AwwORG1pdHJpaSBGZWRpdWuCFC2ujDEpJikzAMP3kVXdUrkzF6brMBMGA1UdJQQM
MAoGCCsGAQUFBwMBMAsGA1UdDwQEAwIFoDARBgNVHREECjAIggZzZXJ2ZXIwCgYI
KoZIzj0EAwQDaAAwZQIwF3/w7Y/V6/4xQtovtPO8qFP60NkIvfpWWgYkEtETDetO
Y8mJFlgasO/6AkoqVbQAAjEAiQbvFtDOTtq0FWrbPQxT9DmUh8X8+Dlj1G6Hy3Cy
+BYn/bVkbe/SDZfF5zcnO8S8
-----END CERTIFICATE-----
