Certificate:
    Data:
        Version: 3 (0x2)
        Serial Number:
            56:7f:e4:9b:d3:78:99:7b:21:99:3f:30:ac:a1:1b:87
        Signature Algorithm: ecdsa-with-SHA512
        Issuer: CN=Dmitrii Fediuk
        Validity
            Not Before: Jul 17 12:30:00 2024 GMT
            Not After : Oct 20 12:30:00 2026 GMT
        Subject: CN=client1
        Subject Public Key Info:
            Public Key Algorithm: id-ecPublicKey
                Public-Key: (384 bit)
                pub:
                    04:86:c8:b0:51:cc:7e:71:a3:21:8e:55:05:a6:57:
                    50:31:36:44:fa:c3:21:66:35:42:26:15:46:44:f8:
                    39:04:71:a5:bf:d6:ac:72:68:48:63:97:dd:d4:df:
                    70:95:53:46:aa:55:4f:ce:dd:2b:85:71:c9:6e:4f:
                    23:67:e7:7f:37:1b:fb:c2:6d:b1:71:c2:58:bd:bc:
                    cd:2b:d9:c3:47:0e:73:b4:91:be:bc:32:77:b9:34:
                    21:fe:ca:80:27:e2:53
                ASN1 OID: secp384r1
                NIST CURVE: P-384
        X509v3 extensions:
            X509v3 Basic Constraints: 
                CA:FALSE
            X509v3 Subject Key Identifier: 
                D6:ED:AB:9F:D8:38:C5:7B:94:B6:97:3B:76:14:07:6B:7F:14:8D:C6
            X509v3 Authority Key Identifier: 
                keyid:E2:6A:75:A1:2D:1E:96:A8:74:67:E5:A0:E6:75:69:93:17:96:72:F5
                DirName:/CN=Dmitrii Fediuk
                serial:2D:AE:8C:31:29:26:29:33:00:C3:F7:91:55:DD:52:B9:33:17:A6:EB
            X509v3 Extended Key Usage: 
                TLS Web Client Authentication
            X509v3 Key Usage: 
                Digital Signature
    Signature Algorithm: ecdsa-with-SHA512
    Signature Value:
        30:65:02:30:14:67:06:1b:a8:28:2a:26:a6:39:d8:c1:ef:6f:
        6c:af:65:34:c3:db:c1:d7:39:ec:d7:f1:a1:ec:fa:a7:ee:d0:
        18:13:74:f3:26:6a:64:e5:cb:e0:eb:8d:ba:40:4c:7c:02:31:
        00:cc:31:67:52:65:ce:aa:79:f6:82:de:71:be:54:82:97:d9:
        92:c1:35:59:a1:88:fe:78:79:e6:0e:95:2b:71:28:4f:0d:3c:
        10:c0:fa:1b:56:8c:39:03:1a:81:66:11:30
-----BEGIN CERTIFICATE-----
MIICDDCCAZKgAwIBAgIQVn/km9N4mXshmT8wrKEbhzAKBggqhkjOPQQDBDAZMRcw
FQYDVQQDDA5EbWl0cmlpIEZlZGl1azAeFw0yNDA3MTcxMjMwMDBaFw0yNjEwMjAx
MjMwMDBaMBIxEDAOBgNVBAMMB2NsaWVudDEwdjAQBgcqhkjOPQIBBgUrgQQAIgNi
AASGyLBRzH5xoyGOVQWmV1AxNkT6wyFmNUImFUZE+DkEcaW/1qxyaEhjl93U33CV
U0aqVU/O3SuFccluTyNn5383G/vCbbFxwli9vM0r2cNHDnO0kb68Mne5NCH+yoAn
4lOjgaUwgaIwCQYDVR0TBAIwADAdBgNVHQ4EFgQU1u2rn9g4xXuUtpc7dhQHa38U
jcYwVAYDVR0jBE0wS4AU4mp1oS0elqh0Z+Wg5nVpkxeWcvWhHaQbMBkxFzAVBgNV
BAMMDkRtaXRyaWkgRmVkaXVrghQtrowxKSYpMwDD95FV3VK5Mxem6zATBgNVHSUE
DDAKBggrBgEFBQcDAjALBgNVHQ8EBAMCB4AwCgYIKoZIzj0EAwQDaAAwZQIwFGcG
G6goKiamOdjB729sr2U0w9vB1zns1/Gh7Pqn7tAYE3TzJmpk5cvg6426QEx8AjEA
zDFnUmXOqnn2gt5xvlSCl9mSwTVZoYj+eHnmDpUrcShPDTwQwPobVow5AxqBZhEw
-----END CERTIFICATE-----
